; ModuleID = 'bench/openssl/original/bn_const.ll'
source_filename = "bench/openssl/original/bn_const.ll"
target datalayout = "e-m:e-p270:32:32-p271:32:32-p272:64:64-i64:64-i128:128-f80:128-n8:16:32:64-S128"
target triple = "x86_64-pc-linux-gnu"

%struct.bignum_st = type opaque

@BN_get_rfc2409_prime_768.RFC2409_PRIME_768 = internal constant [96 x i8] c"\FF\FF\FF\FF\FF\FF\FF\FF\C9\0F\DA\A2!h\C24\C4\C6b\8B\80\DC\1C\D1)\02N\08\8Ag\CCt\02\0B\BE\A6;\13\9B\22QJ\08y\8E4\04\DD\EF\95\19\B3\CD:C\1B0+\0Am\F2_\147O\E15mmQ\C2E\E4\85\B5vb^~\C6\F4LB\E9\A6:6 \FF\FF\FF\FF\FF\FF\FF\FF", align 16
@BN_get_rfc2409_prime_1024.RFC2409_PRIME_1024 = internal constant [128 x i8] c"\FF\FF\FF\FF\FF\FF\FF\FF\C9\0F\DA\A2!h\C24\C4\C6b\8B\80\DC\1C\D1)\02N\08\8Ag\CCt\02\0B\BE\A6;\13\9B\22QJ\08y\8E4\04\DD\EF\95\19\B3\CD:C\1B0+\0Am\F2_\147O\E15mmQ\C2E\E4\85\B5vb^~\C6\F4LB\E9\A67\EDk\0B\FF\\\B6\F4\06\B7\ED\EE8k\FBZ\89\9F\A5\AE\9F$\11|K\1F\E6I(fQ\EC\E6S\81\FF\FF\FF\FF\FF\FF\FF\FF", align 16
@ossl_bignum_modp_1536_p = external constant %struct.bignum_st, align 1
@ossl_bignum_modp_2048_p = external constant %struct.bignum_st, align 1
@ossl_bignum_modp_3072_p = external constant %struct.bignum_st, align 1
@ossl_bignum_modp_4096_p = external constant %struct.bignum_st, align 1
@ossl_bignum_modp_6144_p = external constant %struct.bignum_st, align 1
@ossl_bignum_modp_8192_p = external constant %struct.bignum_st, align 1

; Function Attrs: nounwind uwtable
define ptr @BN_get_rfc2409_prime_768(ptr noundef %0) local_unnamed_addr #0 {
  %2 = tail call ptr @BN_bin2bn(ptr noundef nonnull @BN_get_rfc2409_prime_768.RFC2409_PRIME_768, i32 noundef 96, ptr noundef %0) #2
  ret ptr %2
}

declare ptr @BN_bin2bn(ptr noundef, i32 noundef, ptr noundef) local_unnamed_addr #1

; Function Attrs: nounwind uwtable
define ptr @BN_get_rfc2409_prime_1024(ptr noundef %0) local_unnamed_addr #0 {
  %2 = tail call ptr @BN_bin2bn(ptr noundef nonnull @BN_get_rfc2409_prime_1024.RFC2409_PRIME_1024, i32 noundef 128, ptr noundef %0) #2
  ret ptr %2
}

; Function Attrs: nounwind uwtable
define ptr @BN_get_rfc3526_prime_1536(ptr noundef %0) local_unnamed_addr #0 {
  %.not = icmp eq ptr %0, null
  br i1 %.not, label %4, label %2

2:                                                ; preds = %1
  %3 = tail call ptr @BN_copy(ptr noundef nonnull %0, ptr noundef nonnull @ossl_bignum_modp_1536_p) #2
  br label %6

4:                                                ; preds = %1
  %5 = tail call ptr @BN_dup(ptr noundef nonnull @ossl_bignum_modp_1536_p) #2
  br label %6

6:                                                ; preds = %4, %2
  %7 = phi ptr [ %3, %2 ], [ %5, %4 ]
  ret ptr %7
}

declare ptr @BN_copy(ptr noundef, ptr noundef) local_unnamed_addr #1

declare ptr @BN_dup(ptr noundef) local_unnamed_addr #1

; Function Attrs: nounwind uwtable
define ptr @BN_get_rfc3526_prime_2048(ptr noundef %0) local_unnamed_addr #0 {
  %.not = icmp eq ptr %0, null
  br i1 %.not, label %4, label %2

2:                                                ; preds = %1
  %3 = tail call ptr @BN_copy(ptr noundef nonnull %0, ptr noundef nonnull @ossl_bignum_modp_2048_p) #2
  br label %6

4:                                                ; preds = %1
  %5 = tail call ptr @BN_dup(ptr noundef nonnull @ossl_bignum_modp_2048_p) #2
  br label %6

6:                                                ; preds = %4, %2
  %7 = phi ptr [ %3, %2 ], [ %5, %4 ]
  ret ptr %7
}

; Function Attrs: nounwind uwtable
define ptr @BN_get_rfc3526_prime_3072(ptr noundef %0) local_unnamed_addr #0 {
  %.not = icmp eq ptr %0, null
  br i1 %.not, label %4, label %2

2:                                                ; preds = %1
  %3 = tail call ptr @BN_copy(ptr noundef nonnull %0, ptr noundef nonnull @ossl_bignum_modp_3072_p) #2
  br label %6

4:                                                ; preds = %1
  %5 = tail call ptr @BN_dup(ptr noundef nonnull @ossl_bignum_modp_3072_p) #2
  br label %6

6:                                                ; preds = %4, %2
  %7 = phi ptr [ %3, %2 ], [ %5, %4 ]
  ret ptr %7
}

; Function Attrs: nounwind uwtable
define ptr @BN_get_rfc3526_prime_4096(ptr noundef %0) local_unnamed_addr #0 {
  %.not = icmp eq ptr %0, null
  br i1 %.not, label %4, label %2

2:                                                ; preds = %1
  %3 = tail call ptr @BN_copy(ptr noundef nonnull %0, ptr noundef nonnull @ossl_bignum_modp_4096_p) #2
  br label %6

4:                                                ; preds = %1
  %5 = tail call ptr @BN_dup(ptr noundef nonnull @ossl_bignum_modp_4096_p) #2
  br label %6

6:                                                ; preds = %4, %2
  %7 = phi ptr [ %3, %2 ], [ %5, %4 ]
  ret ptr %7
}

; Function Attrs: nounwind uwtable
define ptr @BN_get_rfc3526_prime_6144(ptr noundef %0) local_unnamed_addr #0 {
  %.not = icmp eq ptr %0, null
  br i1 %.not, label %4, label %2

2:                                                ; preds = %1
  %3 = tail call ptr @BN_copy(ptr noundef nonnull %0, ptr noundef nonnull @ossl_bignum_modp_6144_p) #2
  br label %6

4:                                                ; preds = %1
  %5 = tail call ptr @BN_dup(ptr noundef nonnull @ossl_bignum_modp_6144_p) #2
  br label %6

6:                                                ; preds = %4, %2
  %7 = phi ptr [ %3, %2 ], [ %5, %4 ]
  ret ptr %7
}

; Function Attrs: nounwind uwtable
define ptr @BN_get_rfc3526_prime_8192(ptr noundef %0) local_unnamed_addr #0 {
  %.not = icmp eq ptr %0, null
  br i1 %.not, label %4, label %2

2:                                                ; preds = %1
  %3 = tail call ptr @BN_copy(ptr noundef nonnull %0, ptr noundef nonnull @ossl_bignum_modp_8192_p) #2
  br label %6

4:                                                ; preds = %1
  %5 = tail call ptr @BN_dup(ptr noundef nonnull @ossl_bignum_modp_8192_p) #2
  br label %6

6:                                                ; preds = %4, %2
  %7 = phi ptr [ %3, %2 ], [ %5, %4 ]
  ret ptr %7
}


!llvm.module.flags = !{!0, !1, !2}

!0 = !{i32 1, !"wchar_size", i32 4}
!1 = !{i32 8, !"PIC Level", i32 2}
!2 = !{i32 7, !"uwtable", i32 2}
